target datalayout = "e-m:e-p270:32:32-p271:32:32-p272:64:64-i64:64-i128:128-f80:128-n8:16:32:64-S128"
target triple = "x86_64-pc-linux-gnu"

%struct.ossl_quic_frame_new_conn_id_st = type { i64, i64, %struct.quic_conn_id_st, %struct.QUIC_STATELESS_RESET_TOKEN }
%struct.quic_conn_id_st = type { i8, [20 x i8] }
%struct.QUIC_STATELESS_RESET_TOKEN = type { [16 x i8] }

; Function Attrs: nounwind uwtable
define internal i32 @encode_frame_hdr(ptr noundef %0, i64 noundef %1) #0 {
  %3 = alloca ptr, align 8
  %4 = alloca i64, align 8
  store ptr %0, ptr %3, align 8, !tbaa !21
  store i64 %1, ptr %4, align 8, !tbaa !8
  %5 = load ptr, ptr %3, align 8, !tbaa !21
  %6 = load i64, ptr %4, align 8, !tbaa !8
  %7 = call i32 @WPACKET_quic_write_vlint(ptr noundef %5, i64 noundef %6)
  ret i32 %7
}

; Function Attrs: nounwind uwtable
define i32 @ossl_quic_wire_encode_frame_new_conn_id(ptr noundef %0, ptr noundef %1) #0 {
  %3 = alloca i32, align 4
  %4 = alloca ptr, align 8
  %5 = alloca ptr, align 8
  store ptr %0, ptr %4, align 8, !tbaa !21
  store ptr %1, ptr %5, align 8, !tbaa !57
  %6 = load ptr, ptr %5, align 8, !tbaa !57
  %7 = getelementptr inbounds nuw %struct.ossl_quic_frame_new_conn_id_st, ptr %6, i32 0, i32 2
  %8 = getelementptr inbounds nuw %struct.quic_conn_id_st, ptr %7, i32 0, i32 0
  %9 = load i8, ptr %8, align 8, !tbaa !59
  %10 = zext i8 %9 to i32
  %11 = icmp slt i32 %10, 1
  br i1 %11, label %19, label %12

12:                                               ; preds = %2
  %13 = load ptr, ptr %5, align 8, !tbaa !57
  %14 = getelementptr inbounds nuw %struct.ossl_quic_frame_new_conn_id_st, ptr %13, i32 0, i32 2
  %15 = getelementptr inbounds nuw %struct.quic_conn_id_st, ptr %14, i32 0, i32 0
  %16 = load i8, ptr %15, align 8, !tbaa !59
  %17 = zext i8 %16 to i32
  %18 = icmp sgt i32 %17, 20
  br i1 %18, label %19, label %20

19:                                               ; preds = %12, %2
  store i32 0, ptr %3, align 4
  br label %70

20:                                               ; preds = %12
  %21 = load ptr, ptr %4, align 8, !tbaa !21
  %22 = call i32 @encode_frame_hdr(ptr noundef %21, i64 noundef 24)
  %23 = icmp ne i32 %22, 0
  br i1 %23, label %24, label %68

24:                                               ; preds = %20
  %25 = load ptr, ptr %4, align 8, !tbaa !21
  %26 = load ptr, ptr %5, align 8, !tbaa !57
  %27 = getelementptr inbounds nuw %struct.ossl_quic_frame_new_conn_id_st, ptr %26, i32 0, i32 0
  %28 = load i64, ptr %27, align 8, !tbaa !63
  %29 = call i32 @WPACKET_quic_write_vlint(ptr noundef %25, i64 noundef %28)
  %30 = icmp ne i32 %29, 0
  br i1 %30, label %31, label %68

31:                                               ; preds = %24
  %32 = load ptr, ptr %4, align 8, !tbaa !21
  %33 = load ptr, ptr %5, align 8, !tbaa !57
  %34 = getelementptr inbounds nuw %struct.ossl_quic_frame_new_conn_id_st, ptr %33, i32 0, i32 1
  %35 = load i64, ptr %34, align 8, !tbaa !64
  %36 = call i32 @WPACKET_quic_write_vlint(ptr noundef %32, i64 noundef %35)
  %37 = icmp ne i32 %36, 0
  br i1 %37, label %38, label %68

38:                                               ; preds = %31
  %39 = load ptr, ptr %4, align 8, !tbaa !21
  %40 = load ptr, ptr %5, align 8, !tbaa !57
  %41 = getelementptr inbounds nuw %struct.ossl_quic_frame_new_conn_id_st, ptr %40, i32 0, i32 2
  %42 = getelementptr inbounds nuw %struct.quic_conn_id_st, ptr %41, i32 0, i32 0
  %43 = load i8, ptr %42, align 8, !tbaa !59
  %44 = zext i8 %43 to i64
  %45 = call i32 @WPACKET_put_bytes__(ptr noundef %39, i64 noundef %44, i64 noundef 1)
  %46 = icmp ne i32 %45, 0
  br i1 %46, label %47, label %68

47:                                               ; preds = %38
  %48 = load ptr, ptr %4, align 8, !tbaa !21
  %49 = load ptr, ptr %5, align 8, !tbaa !57
  %50 = getelementptr inbounds nuw %struct.ossl_quic_frame_new_conn_id_st, ptr %49, i32 0, i32 2
  %51 = getelementptr inbounds nuw %struct.quic_conn_id_st, ptr %50, i32 0, i32 1
  %52 = getelementptr inbounds [20 x i8], ptr %51, i64 0, i64 0
  %53 = load ptr, ptr %5, align 8, !tbaa !57
  %54 = getelementptr inbounds nuw %struct.ossl_quic_frame_new_conn_id_st, ptr %53, i32 0, i32 2
  %55 = getelementptr inbounds nuw %struct.quic_conn_id_st, ptr %54, i32 0, i32 0
  %56 = load i8, ptr %55, align 8, !tbaa !59
  %57 = zext i8 %56 to i64
  %58 = call i32 @WPACKET_memcpy(ptr noundef %48, ptr noundef %52, i64 noundef %57)
  %59 = icmp ne i32 %58, 0
  br i1 %59, label %60, label %68

60:                                               ; preds = %47
  %61 = load ptr, ptr %4, align 8, !tbaa !21
  %62 = load ptr, ptr %5, align 8, !tbaa !57
  %63 = getelementptr inbounds nuw %struct.ossl_quic_frame_new_conn_id_st, ptr %62, i32 0, i32 3
  %64 = getelementptr inbounds nuw %struct.QUIC_STATELESS_RESET_TOKEN, ptr %63, i32 0, i32 0
  %65 = getelementptr inbounds [16 x i8], ptr %64, i64 0, i64 0
  %66 = call i32 @WPACKET_memcpy(ptr noundef %61, ptr noundef %65, i64 noundef 16)
  %67 = icmp ne i32 %66, 0
  br i1 %67, label %69, label %68

68:                                               ; preds = %60, %47, %38, %31, %24, %20
  store i32 0, ptr %3, align 4
  br label %70

69:                                               ; preds = %60
  store i32 1, ptr %3, align 4
  br label %70

70:                                               ; preds = %69, %68, %19
  %71 = load i32, ptr %3, align 4
  ret i32 %71
}