; Function Attrs: nounwind uwtable
define range(i32 0, 2) i32 @ossl_quic_wire_encode_frame_new_conn_id(ptr noundef %0, ptr noundef %1) local_unnamed_addr #2 {
  %3 = getelementptr inbounds nuw i8, ptr %1, i64 16
  %4 = load i8, ptr %3, align 8, !tbaa !40
  %5 = add i8 %4, -21
  %or.cond = icmp ult i8 %5, -20
  br i1 %or.cond, label %27, label %6

6:                                                ; preds = %2
  %7 = tail call i32 @WPACKET_quic_write_vlint(ptr noundef %0, i64 noundef 24) #12
  %.not = icmp eq i32 %7, 0
  br i1 %.not, label %27, label %8

8:                                                ; preds = %6
  %9 = load i64, ptr %1, align 8, !tbaa !44
  %10 = tail call i32 @WPACKET_quic_write_vlint(ptr noundef %0, i64 noundef %9) #12
  %.not15 = icmp eq i32 %10, 0
  br i1 %.not15, label %27, label %11

11:                                               ; preds = %8
  %12 = getelementptr inbounds nuw i8, ptr %1, i64 8
  %13 = load i64, ptr %12, align 8, !tbaa !45
  %14 = tail call i32 @WPACKET_quic_write_vlint(ptr noundef %0, i64 noundef %13) #12
  %.not16 = icmp eq i32 %14, 0
  br i1 %.not16, label %27, label %15

15:                                               ; preds = %11
  %16 = load i8, ptr %3, align 8, !tbaa !40
  %17 = zext i8 %16 to i64
  %18 = tail call i32 @WPACKET_put_bytes__(ptr noundef %0, i64 noundef %17, i64 noundef 1) #12
  %.not17 = icmp eq i32 %18, 0
  br i1 %.not17, label %27, label %19

19:                                               ; preds = %15
  %20 = getelementptr inbounds nuw i8, ptr %1, i64 17
  %21 = load i8, ptr %3, align 8, !tbaa !40
  %22 = zext i8 %21 to i64
  %23 = tail call i32 @WPACKET_memcpy(ptr noundef %0, ptr noundef nonnull %20, i64 noundef %22) #12
  %.not18 = icmp eq i32 %23, 0
  br i1 %.not18, label %27, label %24

24:                                               ; preds = %19
  %25 = getelementptr inbounds nuw i8, ptr %1, i64 37
  %26 = tail call i32 @WPACKET_memcpy(ptr noundef %0, ptr noundef nonnull %25, i64 noundef 16) #12
  %.not19 = icmp ne i32 %26, 0
  %spec.select = zext i1 %.not19 to i32
  br label %27

27:                                               ; preds = %24, %6, %8, %11, %15, %19, %2
  %.0 = phi i32 [ 0, %2 ], [ 0, %19 ], [ 0, %15 ], [ 0, %11 ], [ 0, %8 ], [ 0, %6 ], [ %spec.select, %24 ]
  ret i32 %.0
}